target datalayout = "e-m:e-p270:32:32-p271:32:32-p272:64:64-i64:64-i128:128-f80:128-n8:16:32:64-S128"
target triple = "x86_64-pc-linux-gnu"

%struct.VduseVirtq = type { %struct.VduseRing, i16, i16, i16, i16, i8, i32, i32, i8, i32, ptr, ptr, i16, i64, ptr }
%struct.VduseRing = type { i32, i64, i64, i64, ptr, ptr, ptr }
%struct.iovec = type { ptr, i64 }

@stderr = external global ptr, align 8
@.str.16 = private unnamed_addr constant [40 x i8] c"../qemu/subprojects/libvduse/libvduse.c\00", align 1
@.str.24 = private unnamed_addr constant [21 x i8] c"num_sg <= max_num_sg\00", align 1
@__PRETTY_FUNCTION__.vduse_queue_map_single_desc = private unnamed_addr constant [119 x i8] c"_Bool vduse_queue_map_single_desc(VduseVirtq *, unsigned int *, struct iovec *, unsigned int, _Bool, uint64_t, size_t)\00", align 1
@.str.25 = private unnamed_addr constant [44 x i8] c"virtio: zero sized buffers are not allowed\0A\00", align 1
@.str.26 = private unnamed_addr constant [48 x i8] c"virtio: too many descriptors in indirect table\0A\00", align 1
@.str.27 = private unnamed_addr constant [37 x i8] c"virtio: invalid address for buffers\0A\00", align 1

; Function Attrs: nounwind uwtable
define internal zeroext i1 @vduse_queue_map_single_desc(ptr noundef %0, ptr noundef %1, ptr noundef %2, i32 noundef %3, i1 noundef zeroext %4, i64 noundef %5, i64 noundef %6) #0 {
  %8 = alloca i1, align 1
  %9 = alloca ptr, align 8
  %10 = alloca ptr, align 8
  %11 = alloca ptr, align 8
  %12 = alloca i32, align 4
  %13 = alloca i8, align 1
  %14 = alloca i64, align 8
  %15 = alloca i64, align 8
  %16 = alloca i32, align 4
  %17 = alloca ptr, align 8
  %18 = alloca i32, align 4
  %19 = alloca i64, align 8
  store ptr %0, ptr %9, align 8
  store ptr %1, ptr %10, align 8
  store ptr %2, ptr %11, align 8
  store i32 %3, ptr %12, align 4
  %20 = zext i1 %4 to i8
  store i8 %20, ptr %13, align 1
  store i64 %5, ptr %14, align 8
  store i64 %6, ptr %15, align 8
  call void @llvm.lifetime.start.p0(i64 4, ptr %16) #13
  %21 = load ptr, ptr %10, align 8
  %22 = load i32, ptr %21, align 4
  store i32 %22, ptr %16, align 4
  call void @llvm.lifetime.start.p0(i64 8, ptr %17) #13
  %23 = load ptr, ptr %9, align 8
  %24 = getelementptr inbounds nuw %struct.VduseVirtq, ptr %23, i32 0, i32 10
  %25 = load ptr, ptr %24, align 8
  store ptr %25, ptr %17, align 8
  %26 = load i32, ptr %16, align 4
  %27 = load i32, ptr %12, align 4
  %28 = icmp ule i32 %26, %27
  br i1 %28, label %29, label %30

29:                                               ; preds = %7
  br label %31

30:                                               ; preds = %7
  call void @__assert_fail(ptr noundef @.str.24, ptr noundef @.str.16, i32 noundef 596, ptr noundef @__PRETTY_FUNCTION__.vduse_queue_map_single_desc) #15
  unreachable

31:                                               ; preds = %29
  %32 = load i64, ptr %15, align 8
  %33 = icmp ne i64 %32, 0
  br i1 %33, label %37, label %34

34:                                               ; preds = %31
  %35 = load ptr, ptr @stderr, align 8
  %36 = call i32 (ptr, ptr, ...) @fprintf(ptr noundef %35, ptr noundef @.str.25) #13
  store i1 false, ptr %8, align 1
  store i32 1, ptr %18, align 4
  br label %88

37:                                               ; preds = %31
  br label %38

38:                                               ; preds = %84, %37
  %39 = load i64, ptr %15, align 8
  %40 = icmp ne i64 %39, 0
  br i1 %40, label %41, label %85

41:                                               ; preds = %38
  call void @llvm.lifetime.start.p0(i64 8, ptr %19) #13
  %42 = load i64, ptr %15, align 8
  store i64 %42, ptr %19, align 8
  %43 = load i32, ptr %16, align 4
  %44 = load i32, ptr %12, align 4
  %45 = icmp eq i32 %43, %44
  br i1 %45, label %46, label %49

46:                                               ; preds = %41
  %47 = load ptr, ptr @stderr, align 8
  %48 = call i32 (ptr, ptr, ...) @fprintf(ptr noundef %47, ptr noundef @.str.26) #13
  store i1 false, ptr %8, align 1
  store i32 1, ptr %18, align 4
  br label %82

49:                                               ; preds = %41
  %50 = load ptr, ptr %17, align 8
  %51 = load i64, ptr %14, align 8
  %52 = call ptr @iova_to_va(ptr noundef %50, ptr noundef %19, i64 noundef %51)
  %53 = load ptr, ptr %11, align 8
  %54 = load i32, ptr %16, align 4
  %55 = zext i32 %54 to i64
  %56 = getelementptr inbounds nuw %struct.iovec, ptr %53, i64 %55
  %57 = getelementptr inbounds nuw %struct.iovec, ptr %56, i32 0, i32 0
  store ptr %52, ptr %57, align 8
  %58 = load ptr, ptr %11, align 8
  %59 = load i32, ptr %16, align 4
  %60 = zext i32 %59 to i64
  %61 = getelementptr inbounds nuw %struct.iovec, ptr %58, i64 %60
  %62 = getelementptr inbounds nuw %struct.iovec, ptr %61, i32 0, i32 0
  %63 = load ptr, ptr %62, align 8
  %64 = icmp eq ptr %63, null
  br i1 %64, label %65, label %68

65:                                               ; preds = %49
  %66 = load ptr, ptr @stderr, align 8
  %67 = call i32 (ptr, ptr, ...) @fprintf(ptr noundef %66, ptr noundef @.str.27) #13
  store i1 false, ptr %8, align 1
  store i32 1, ptr %18, align 4
  br label %82

68:                                               ; preds = %49
  %69 = load i64, ptr %19, align 8
  %70 = load ptr, ptr %11, align 8
  %71 = load i32, ptr %16, align 4
  %72 = add i32 %71, 1
  store i32 %72, ptr %16, align 4
  %73 = zext i32 %71 to i64
  %74 = getelementptr inbounds nuw %struct.iovec, ptr %70, i64 %73
  %75 = getelementptr inbounds nuw %struct.iovec, ptr %74, i32 0, i32 1
  store i64 %69, ptr %75, align 8
  %76 = load i64, ptr %19, align 8
  %77 = load i64, ptr %15, align 8
  %78 = sub i64 %77, %76
  store i64 %78, ptr %15, align 8
  %79 = load i64, ptr %19, align 8
  %80 = load i64, ptr %14, align 8
  %81 = add i64 %80, %79
  store i64 %81, ptr %14, align 8
  store i32 0, ptr %18, align 4
  br label %82

82:                                               ; preds = %68, %65, %46
  call void @llvm.lifetime.end.p0(i64 8, ptr %19) #13
  %83 = load i32, ptr %18, align 4
  switch i32 %83, label %88 [
    i32 0, label %84
  ]

84:                                               ; preds = %82
  br label %38

85:                                               ; preds = %38
  %86 = load i32, ptr %16, align 4
  %87 = load ptr, ptr %10, align 8
  store i32 %86, ptr %87, align 4
  store i1 true, ptr %8, align 1
  store i32 1, ptr %18, align 4
  br label %88

88:                                               ; preds = %85, %82, %34
  call void @llvm.lifetime.end.p0(i64 8, ptr %17) #13
  call void @llvm.lifetime.end.p0(i64 4, ptr %16) #13
  %89 = load i1, ptr %8, align 1
  ret i1 %89
}